; ModuleID = '14/809.c'
source_filename = "14/809.c"
target datalayout = "e-m:e-p270:32:32-p271:32:32-p272:64:64-i64:64-f80:128-n8:16:32:64-S128"
target triple = "x86_64-pc-linux-gnu"

%struct.student = type { i32, i32, i32, i32, %struct.student* }

@.str = private unnamed_addr constant [9 x i8] c"%d %d %d\00", align 1
@.str.1 = private unnamed_addr constant [3 x i8] c"%d\00", align 1
@.str.2 = private unnamed_addr constant [7 x i8] c"%d %d\0A\00", align 1

; Function Attrs: noinline nounwind uwtable
define dso_local %struct.student* @create(i32 %0) #0 {
  %2 = alloca i32, align 4
  %3 = alloca %struct.student*, align 8
  %4 = alloca %struct.student*, align 8
  %5 = alloca %struct.student*, align 8
  %6 = alloca i32, align 4
  store i32 %0, i32* %2, align 4
  %7 = call noalias i8* @malloc(i64 100) #3
  %8 = bitcast i8* %7 to %struct.student*
  store %struct.student* %8, %struct.student** %4, align 8
  %9 = load %struct.student*, %struct.student** %4, align 8
  %10 = getelementptr inbounds %struct.student, %struct.student* %9, i32 0, i32 0
  %11 = load %struct.student*, %struct.student** %4, align 8
  %12 = getelementptr inbounds %struct.student, %struct.student* %11, i32 0, i32 1
  %13 = load %struct.student*, %struct.student** %4, align 8
  %14 = getelementptr inbounds %struct.student, %struct.student* %13, i32 0, i32 2
  %15 = call i32 (i8*, ...) @__isoc99_scanf(i8* getelementptr inbounds ([9 x i8], [9 x i8]* @.str, i64 0, i64 0), i32* %10, i32* %12, i32* %14)
  %16 = load %struct.student*, %struct.student** %4, align 8
  %17 = getelementptr inbounds %struct.student, %struct.student* %16, i32 0, i32 1
  %18 = load i32, i32* %17, align 4
  %19 = load %struct.student*, %struct.student** %4, align 8
  %20 = getelementptr inbounds %struct.student, %struct.student* %19, i32 0, i32 2
  %21 = load i32, i32* %20, align 8
  %22 = add nsw i32 %18, %21
  %23 = load %struct.student*, %struct.student** %4, align 8
  %24 = getelementptr inbounds %struct.student, %struct.student* %23, i32 0, i32 3
  store i32 %22, i32* %24, align 4
  %25 = load %struct.student*, %struct.student** %4, align 8
  %26 = getelementptr inbounds %struct.student, %struct.student* %25, i32 0, i32 4
  store %struct.student* null, %struct.student** %26, align 8
  %27 = load %struct.student*, %struct.student** %4, align 8
  store %struct.student* %27, %struct.student** %3, align 8
  %28 = load %struct.student*, %struct.student** %4, align 8
  store %struct.student* %28, %struct.student** %5, align 8
  store i32 1, i32* %6, align 4
  br label %29

29:                                               ; preds = %59, %1
  %30 = load i32, i32* %6, align 4
  %31 = load i32, i32* %2, align 4
  %32 = sub nsw i32 %31, 1
  %33 = icmp sle i32 %30, %32
  br i1 %33, label %34, label %62

34:                                               ; preds = %29
  %35 = call noalias i8* @malloc(i64 100) #3
  %36 = bitcast i8* %35 to %struct.student*
  store %struct.student* %36, %struct.student** %4, align 8
  %37 = load %struct.student*, %struct.student** %4, align 8
  %38 = getelementptr inbounds %struct.student, %struct.student* %37, i32 0, i32 0
  %39 = load %struct.student*, %struct.student** %4, align 8
  %40 = getelementptr inbounds %struct.student, %struct.student* %39, i32 0, i32 1
  %41 = load %struct.student*, %struct.student** %4, align 8
  %42 = getelementptr inbounds %struct.student, %struct.student* %41, i32 0, i32 2
  %43 = call i32 (i8*, ...) @__isoc99_scanf(i8* getelementptr inbounds ([9 x i8], [9 x i8]* @.str, i64 0, i64 0), i32* %38, i32* %40, i32* %42)
  %44 = load %struct.student*, %struct.student** %4, align 8
  %45 = getelementptr inbounds %struct.student, %struct.student* %44, i32 0, i32 1
  %46 = load i32, i32* %45, align 4
  %47 = load %struct.student*, %struct.student** %4, align 8
  %48 = getelementptr inbounds %struct.student, %struct.student* %47, i32 0, i32 2
  %49 = load i32, i32* %48, align 8
  %50 = add nsw i32 %46, %49
  %51 = load %struct.student*, %struct.student** %4, align 8
  %52 = getelementptr inbounds %struct.student, %struct.student* %51, i32 0, i32 3
  store i32 %50, i32* %52, align 4
  %53 = load %struct.student*, %struct.student** %4, align 8
  %54 = getelementptr inbounds %struct.student, %struct.student* %53, i32 0, i32 4
  store %struct.student* null, %struct.student** %54, align 8
  %55 = load %struct.student*, %struct.student** %4, align 8
  %56 = load %struct.student*, %struct.student** %5, align 8
  %57 = getelementptr inbounds %struct.student, %struct.student* %56, i32 0, i32 4
  store %struct.student* %55, %struct.student** %57, align 8
  %58 = load %struct.student*, %struct.student** %4, align 8
  store %struct.student* %58, %struct.student** %5, align 8
  br label %59

59:                                               ; preds = %34
  %60 = load i32, i32* %6, align 4
  %61 = add nsw i32 %60, 1
  store i32 %61, i32* %6, align 4
  br label %29

62:                                               ; preds = %29
  %63 = load %struct.student*, %struct.student** %3, align 8
  ret %struct.student* %63
}

; Function Attrs: nounwind
declare dso_local noalias i8* @malloc(i64) #1

declare dso_local i32 @__isoc99_scanf(i8*, ...) #2

; Function Attrs: noinline nounwind uwtable
define dso_local %struct.student* @max(%struct.student* %0) #0 {
  %2 = alloca %struct.student*, align 8
  %3 = alloca %struct.student*, align 8
  %4 = alloca %struct.student*, align 8
  store %struct.student* %0, %struct.student** %2, align 8
  %5 = load %struct.student*, %struct.student** %2, align 8
  store %struct.student* %5, %struct.student** %4, align 8
  %6 = load %struct.student*, %struct.student** %2, align 8
  %7 = getelementptr inbounds %struct.student, %struct.student* %6, i32 0, i32 4
  %8 = load %struct.student*, %struct.student** %7, align 8
  store %struct.student* %8, %struct.student** %3, align 8
  br label %9

9:                                                ; preds = %22, %1
  %10 = load %struct.student*, %struct.student** %3, align 8
  %11 = icmp ne %struct.student* %10, null
  br i1 %11, label %12, label %26

12:                                               ; preds = %9
  %13 = load %struct.student*, %struct.student** %3, align 8
  %14 = getelementptr inbounds %struct.student, %struct.student* %13, i32 0, i32 3
  %15 = load i32, i32* %14, align 4
  %16 = load %struct.student*, %struct.student** %4, align 8
  %17 = getelementptr inbounds %struct.student, %struct.student* %16, i32 0, i32 3
  %18 = load i32, i32* %17, align 4
  %19 = icmp sgt i32 %15, %18
  br i1 %19, label %20, label %22

20:                                               ; preds = %12
  %21 = load %struct.student*, %struct.student** %3, align 8
  store %struct.student* %21, %struct.student** %4, align 8
  br label %22

22:                                               ; preds = %20, %12
  %23 = load %struct.student*, %struct.student** %3, align 8
  %24 = getelementptr inbounds %struct.student, %struct.student* %23, i32 0, i32 4
  %25 = load %struct.student*, %struct.student** %24, align 8
  store %struct.student* %25, %struct.student** %3, align 8
  br label %9

26:                                               ; preds = %9
  %27 = load %struct.student*, %struct.student** %4, align 8
  ret %struct.student* %27
}

; Function Attrs: noinline nounwind uwtable
define dso_local void @main() #0 {
  %1 = alloca i32, align 4
  %2 = alloca i32, align 4
  %3 = alloca %struct.student*, align 8
  %4 = alloca %struct.student*, align 8
  %5 = call i32 (i8*, ...) @__isoc99_scanf(i8* getelementptr inbounds ([3 x i8], [3 x i8]* @.str.1, i64 0, i64 0), i32* %1)
  %6 = load i32, i32* %1, align 4
  %7 = call %struct.student* @create(i32 %6)
  store %struct.student* %7, %struct.student** %3, align 8
  store i32 1, i32* %2, align 4
  br label %8

8:                                                ; preds = %23, %0
  %9 = load i32, i32* %2, align 4
  %10 = icmp sle i32 %9, 3
  br i1 %10, label %11, label %26

11:                                               ; preds = %8
  %12 = load %struct.student*, %struct.student** %3, align 8
  %13 = call %struct.student* @max(%struct.student* %12)
  store %struct.student* %13, %struct.student** %4, align 8
  %14 = load %struct.student*, %struct.student** %4, align 8
  %15 = getelementptr inbounds %struct.student, %struct.student* %14, i32 0, i32 0
  %16 = load i32, i32* %15, align 8
  %17 = load %struct.student*, %struct.student** %4, align 8
  %18 = getelementptr inbounds %struct.student, %struct.student* %17, i32 0, i32 3
  %19 = load i32, i32* %18, align 4
  %20 = call i32 (i8*, ...) @printf(i8* getelementptr inbounds ([7 x i8], [7 x i8]* @.str.2, i64 0, i64 0), i32 %16, i32 %19)
  %21 = load %struct.student*, %struct.student** %4, align 8
  %22 = getelementptr inbounds %struct.student, %struct.student* %21, i32 0, i32 3
  store i32 -1, i32* %22, align 4
  br label %23

23:                                               ; preds = %11
  %24 = load i32, i32* %2, align 4
  %25 = add nsw i32 %24, 1
  store i32 %25, i32* %2, align 4
  br label %8

26:                                               ; preds = %8
  ret void
}

declare dso_local i32 @printf(i8*, ...) #2


!llvm.module.flags = !{!0}
!llvm.ident = !{!1}

!0 = !{i32 1, !"wchar_size", i32 4}
!1 = !{!"clang version 10.0.0-4ubuntu1 "}
